target datalayout = "e-m:e-p270:32:32-p271:32:32-p272:64:64-i64:64-i128:128-f80:128-n8:16:32:64-S128"
target triple = "x86_64-unknown-linux-gnu"

%"class.cvc5::internal::Rational" = type { %class.__gmp_expr }
%class.__gmp_expr = type { [1 x %struct.__mpq_struct] }
%struct.__mpq_struct = type { %struct.__mpz_struct, %struct.__mpz_struct }
%struct.__mpz_struct = type { i32, i32, ptr }
%"class.cvc5::internal::theory::arith::linear::UpdateInfo" = type <{ i32, i32, %"class.std::optional", i8, [3 x i8], %"class.std::optional.47", %"class.std::optional.47", [4 x i8], %"class.std::optional", %"class.std::optional.55", ptr, i32, [4 x i8] }>
%"class.std::optional.47" = type { %"struct.std::_Optional_base.48" }
%"struct.std::_Optional_base.48" = type { %"struct.std::_Optional_payload.50" }
%"struct.std::_Optional_payload.50" = type { %"struct.std::_Optional_payload_base.base.52", [3 x i8] }
%"struct.std::_Optional_payload_base.base.52" = type <{ %"union.std::_Optional_payload_base<int>::_Storage", i8 }>
%"union.std::_Optional_payload_base<int>::_Storage" = type { i32 }
%"class.std::optional" = type { %"struct.std::_Optional_base" }
%"struct.std::_Optional_base" = type { %"struct.std::_Optional_payload" }
%"struct.std::_Optional_payload" = type { %"struct.std::_Optional_payload.base", [7 x i8] }
%"struct.std::_Optional_payload.base" = type { %"struct.std::_Optional_payload_base.base" }
%"struct.std::_Optional_payload_base.base" = type <{ %"union.std::_Optional_payload_base<cvc5::internal::DeltaRational>::_Storage", i8 }>
%"union.std::_Optional_payload_base<cvc5::internal::DeltaRational>::_Storage" = type { %"class.cvc5::internal::DeltaRational" }
%"class.cvc5::internal::DeltaRational" = type { %"class.cvc5::internal::Rational", %"class.cvc5::internal::Rational" }
%"class.std::optional.55" = type { %"struct.std::_Optional_base.56" }
%"struct.std::_Optional_base.56" = type { %"struct.std::_Optional_payload.58" }
%"struct.std::_Optional_payload.58" = type { %"struct.std::_Optional_payload_base.base.60", [7 x i8] }
%"struct.std::_Optional_payload_base.base.60" = type <{ %"union.std::_Optional_payload_base<const cvc5::internal::Rational *>::_Storage", i8 }>
%"union.std::_Optional_payload_base<const cvc5::internal::Rational *>::_Storage" = type { ptr }

; Function Attrs: mustprogress nounwind uwtable
define linkonce_odr hidden noundef zeroext i1 @_ZNK4cvc58internal6theory5arith6linear10UpdateInfo13foundConflictEv(ptr noundef nonnull align 8 dereferenceable(204) %this) #6 comdat align 2 {
entry:
  %this.addr = alloca ptr, align 8
  store ptr %this, ptr %this.addr, align 8
  %this1 = load ptr, ptr %this.addr, align 8
  %d_foundConflict = getelementptr inbounds %"class.cvc5::internal::theory::arith::linear::UpdateInfo", ptr %this1, i32 0, i32 3
  %0 = load i8, ptr %d_foundConflict, align 8
  %tobool = trunc i8 %0 to i1
  ret i1 %tobool
}

; Function Attrs: mustprogress uwtable
define hidden noundef zeroext i1 @_ZN4cvc58internal6theory5arith6linear17debugUpdatedBasicERKNS3_10UpdateInfoEj(ptr noundef nonnull align 8 dereferenceable(204) %selected, i32 noundef %updated) #4 {
entry:
  %retval = alloca i1, align 1
  %selected.addr = alloca ptr, align 8
  %updated.addr = alloca i32, align 4
  store ptr %selected, ptr %selected.addr, align 8
  store i32 %updated, ptr %updated.addr, align 4
  %0 = load ptr, ptr %selected.addr, align 8
  %call = call noundef zeroext i1 @_ZNK4cvc58internal6theory5arith6linear10UpdateInfo14describesPivotEv(ptr noundef nonnull align 8 dereferenceable(204) %0)
  br i1 %call, label %land.lhs.true, label %if.else

land.lhs.true:                                    ; preds = %entry
  %1 = load i32, ptr %updated.addr, align 4
  %2 = load ptr, ptr %selected.addr, align 8
  %call1 = call noundef i32 @_ZNK4cvc58internal6theory5arith6linear10UpdateInfo7leavingEv(ptr noundef nonnull align 8 dereferenceable(204) %2)
  %cmp = icmp eq i32 %1, %call1
  br i1 %cmp, label %if.then, label %if.else

if.then:                                          ; preds = %land.lhs.true
  %3 = load ptr, ptr %selected.addr, align 8
  %call2 = call noundef zeroext i1 @_ZNK4cvc58internal6theory5arith6linear10UpdateInfo13foundConflictEv(ptr noundef nonnull align 8 dereferenceable(204) %3)
  store i1 %call2, ptr %retval, align 1
  br label %return

if.else:                                          ; preds = %land.lhs.true, %entry
  store i1 true, ptr %retval, align 1
  br label %return

return:                                           ; preds = %if.else, %if.then
  %4 = load i1, ptr %retval, align 1
  ret i1 %4
}