; Function Attrs: mustprogress uwtable
define hidden noundef zeroext i1 @_ZN4cvc58internal6theory5arith6linear17debugUpdatedBasicERKNS3_10UpdateInfoEj(ptr noundef nonnull align 8 dereferenceable(204) %selected, i32 noundef %updated) local_unnamed_addr #3 {
entry:
  %call = tail call noundef zeroext i1 @_ZNK4cvc58internal6theory5arith6linear10UpdateInfo14describesPivotEv(ptr noundef nonnull align 8 dereferenceable(204) %selected)
  br i1 %call, label %land.lhs.true, label %return

land.lhs.true:                                    ; preds = %entry
  %call1 = tail call noundef i32 @_ZNK4cvc58internal6theory5arith6linear10UpdateInfo7leavingEv(ptr noundef nonnull align 8 dereferenceable(204) %selected)
  %cmp = icmp eq i32 %call1, %updated
  br i1 %cmp, label %if.then, label %return

if.then:                                          ; preds = %land.lhs.true
  %d_foundConflict.i = getelementptr inbounds i8, ptr %selected, i64 80
  %0 = load i8, ptr %d_foundConflict.i, align 8
  %1 = and i8 %0, 1
  %tobool.i = icmp ne i8 %1, 0
  br label %return

return:                                           ; preds = %entry, %land.lhs.true, %if.then
  %retval.0 = phi i1 [ %tobool.i, %if.then ], [ true, %land.lhs.true ], [ true, %entry ]
  ret i1 %retval.0
}